target datalayout = "e-m:e-p270:32:32-p271:32:32-p272:64:64-i64:64-i128:128-f80:128-n8:16:32:64-S128"
target triple = "x86_64-pc-linux-gnu"

%struct.PlannerInfo = type { i32, ptr, ptr, i32, ptr, ptr, ptr, ptr, i32, ptr, ptr, ptr, ptr, ptr, ptr, ptr, ptr, i32, ptr, ptr, ptr, ptr, ptr, i8, ptr, ptr, ptr, ptr, ptr, i32, ptr, ptr, ptr, ptr, ptr, ptr, ptr, i32, ptr, ptr, ptr, i32, ptr, ptr, ptr, ptr, ptr, ptr, [8 x ptr], [8 x ptr], ptr, ptr, ptr, ptr, ptr, ptr, ptr, double, double, double, i32, i8, i8, i8, i8, i8, i8, i8, i32, ptr, ptr, i32, i8, i8, i32, ptr, ptr, ptr, ptr, ptr, ptr, i8, ptr }
%struct.PlaceHolderInfo = type { i32, i32, ptr, ptr, ptr, ptr, i32 }
%struct.ForEachState = type { ptr, i32 }
%struct.List = type { i32, i32, i32, ptr, [0 x %union.ListCell] }
%union.ListCell = type { ptr }
%struct.RelOptInfo = type { i32, i32, ptr, double, i8, i8, i8, ptr, ptr, ptr, ptr, ptr, ptr, ptr, ptr, ptr, ptr, i32, i32, i32, i16, i16, ptr, ptr, ptr, ptr, ptr, ptr, ptr, ptr, i32, double, double, ptr, ptr, ptr, i32, i32, i32, i32, i8, ptr, ptr, ptr, ptr, ptr, %struct.QualCost, i32, ptr, i8, i8, ptr, ptr, ptr, ptr, i32, ptr, i8, ptr, ptr, ptr, ptr, ptr, ptr }
%struct.QualCost = type { double, double }
%struct.PathTarget = type { i32, ptr, ptr, %struct.QualCost, i32, i32 }

; Function Attrs: nounwind uwtable
define dso_local void @add_placeholders_to_base_rels(ptr noundef %0) #0 {
  %2 = alloca ptr, align 8
  %3 = alloca ptr, align 8
  %4 = alloca %struct.ForEachState, align 8
  %5 = alloca ptr, align 8
  %6 = alloca ptr, align 8
  %7 = alloca i32, align 4
  %8 = alloca ptr, align 8
  store ptr %0, ptr %2, align 8
  call void @llvm.lifetime.start.p0(i64 8, ptr %3) #6
  call void @llvm.lifetime.start.p0(i64 16, ptr %4) #6
  %9 = getelementptr inbounds nuw %struct.ForEachState, ptr %4, i32 0, i32 0
  %10 = load ptr, ptr %2, align 8
  %11 = getelementptr inbounds nuw %struct.PlannerInfo, ptr %10, i32 0, i32 35
  %12 = load ptr, ptr %11, align 8
  store ptr %12, ptr %9, align 8
  %13 = getelementptr inbounds nuw %struct.ForEachState, ptr %4, i32 0, i32 1
  store i32 0, ptr %13, align 8
  %14 = getelementptr i8, ptr %4, i64 12
  call void @llvm.memset.p0.i64(ptr align 4 %14, i8 0, i64 4, i1 false)
  br label %15

15:                                               ; preds = %74, %1
  %16 = getelementptr inbounds nuw %struct.ForEachState, ptr %4, i32 0, i32 0
  %17 = load ptr, ptr %16, align 8
  %18 = icmp ne ptr %17, null
  br i1 %18, label %19, label %36

19:                                               ; preds = %15
  %20 = getelementptr inbounds nuw %struct.ForEachState, ptr %4, i32 0, i32 1
  %21 = load i32, ptr %20, align 8
  %22 = getelementptr inbounds nuw %struct.ForEachState, ptr %4, i32 0, i32 0
  %23 = load ptr, ptr %22, align 8
  %24 = getelementptr inbounds nuw %struct.List, ptr %23, i32 0, i32 1
  %25 = load i32, ptr %24, align 4
  %26 = icmp slt i32 %21, %25
  br i1 %26, label %27, label %36

27:                                               ; preds = %19
  %28 = getelementptr inbounds nuw %struct.ForEachState, ptr %4, i32 0, i32 0
  %29 = load ptr, ptr %28, align 8
  %30 = getelementptr inbounds nuw %struct.List, ptr %29, i32 0, i32 3
  %31 = load ptr, ptr %30, align 8
  %32 = getelementptr inbounds nuw %struct.ForEachState, ptr %4, i32 0, i32 1
  %33 = load i32, ptr %32, align 8
  %34 = sext i32 %33 to i64
  %35 = getelementptr inbounds %union.ListCell, ptr %31, i64 %34
  store ptr %35, ptr %3, align 8
  br label %37

36:                                               ; preds = %19, %15
  store ptr null, ptr %3, align 8
  br label %37

37:                                               ; preds = %36, %27
  %38 = phi i32 [ 1, %27 ], [ 0, %36 ]
  %39 = icmp ne i32 %38, 0
  br i1 %39, label %41, label %40

40:                                               ; preds = %37
  call void @llvm.lifetime.end.p0(i64 16, ptr %4) #6
  br label %78

41:                                               ; preds = %37
  call void @llvm.lifetime.start.p0(i64 8, ptr %5) #6
  %42 = load ptr, ptr %3, align 8
  %43 = load ptr, ptr %42, align 8
  store ptr %43, ptr %5, align 8
  call void @llvm.lifetime.start.p0(i64 8, ptr %6) #6
  %44 = load ptr, ptr %5, align 8
  %45 = getelementptr inbounds nuw %struct.PlaceHolderInfo, ptr %44, i32 0, i32 3
  %46 = load ptr, ptr %45, align 8
  store ptr %46, ptr %6, align 8
  call void @llvm.lifetime.start.p0(i64 4, ptr %7) #6
  %47 = load ptr, ptr %6, align 8
  %48 = call zeroext i1 @bms_get_singleton_member(ptr noundef %47, ptr noundef %7)
  br i1 %48, label %49, label %73

49:                                               ; preds = %41
  %50 = load ptr, ptr %5, align 8
  %51 = getelementptr inbounds nuw %struct.PlaceHolderInfo, ptr %50, i32 0, i32 5
  %52 = load ptr, ptr %51, align 8
  %53 = load ptr, ptr %6, align 8
  %54 = call zeroext i1 @bms_nonempty_difference(ptr noundef %52, ptr noundef %53)
  br i1 %54, label %55, label %73

55:                                               ; preds = %49
  call void @llvm.lifetime.start.p0(i64 8, ptr %8) #6
  %56 = load ptr, ptr %2, align 8
  %57 = load i32, ptr %7, align 4
  %58 = call ptr @find_base_rel(ptr noundef %56, i32 noundef %57)
  store ptr %58, ptr %8, align 8
  %59 = load ptr, ptr %8, align 8
  %60 = getelementptr inbounds nuw %struct.RelOptInfo, ptr %59, i32 0, i32 7
  %61 = load ptr, ptr %60, align 8
  %62 = getelementptr inbounds nuw %struct.PathTarget, ptr %61, i32 0, i32 1
  %63 = load ptr, ptr %62, align 8
  %64 = load ptr, ptr %5, align 8
  %65 = getelementptr inbounds nuw %struct.PlaceHolderInfo, ptr %64, i32 0, i32 2
  %66 = load ptr, ptr %65, align 8
  %67 = call ptr @copyObjectImpl(ptr noundef %66)
  %68 = call ptr @lappend(ptr noundef %63, ptr noundef %67)
  %69 = load ptr, ptr %8, align 8
  %70 = getelementptr inbounds nuw %struct.RelOptInfo, ptr %69, i32 0, i32 7
  %71 = load ptr, ptr %70, align 8
  %72 = getelementptr inbounds nuw %struct.PathTarget, ptr %71, i32 0, i32 1
  store ptr %68, ptr %72, align 8
  call void @llvm.lifetime.end.p0(i64 8, ptr %8) #6
  br label %73

73:                                               ; preds = %55, %49, %41
  call void @llvm.lifetime.end.p0(i64 4, ptr %7) #6
  call void @llvm.lifetime.end.p0(i64 8, ptr %6) #6
  call void @llvm.lifetime.end.p0(i64 8, ptr %5) #6
  br label %74

74:                                               ; preds = %73
  %75 = getelementptr inbounds nuw %struct.ForEachState, ptr %4, i32 0, i32 1
  %76 = load i32, ptr %75, align 8
  %77 = add i32 %76, 1
  store i32 %77, ptr %75, align 8
  br label %15, !llvm.loop !12

78:                                               ; preds = %40
  call void @llvm.lifetime.end.p0(i64 8, ptr %3) #6
  ret void
}