; Function Attrs: nounwind uwtable
define dso_local void @add_placeholders_to_base_rels(ptr noundef %0) local_unnamed_addr #0 {
  %2 = alloca i32, align 4
  %3 = getelementptr inbounds nuw i8, ptr %0, i64 280
  %4 = load ptr, ptr %3, align 8
  %5 = getelementptr inbounds nuw i8, ptr %4, i64 4
  %.not = icmp eq ptr %4, null
  br i1 %.not, label %._crit_edge, label %.lr.ph

.lr.ph:                                           ; preds = %1
  %6 = getelementptr inbounds nuw i8, ptr %4, i64 16
  %7 = load i32, ptr %5, align 4
  %8 = icmp sgt i32 %7, 0
  br i1 %8, label %.lr.ph21, label %._crit_edge

._crit_edge:                                      ; preds = %32, %.lr.ph, %1
  ret void

.lr.ph21:                                         ; preds = %.lr.ph, %32
  %indvars.iv = phi i64 [ %indvars.iv.next, %32 ], [ 0, %.lr.ph ]
  %9 = load ptr, ptr %6, align 8
  %10 = getelementptr inbounds nuw %union.ListCell, ptr %9, i64 %indvars.iv
  %11 = load ptr, ptr %10, align 8
  %12 = getelementptr inbounds nuw i8, ptr %11, i64 16
  %13 = load ptr, ptr %12, align 8
  call void @llvm.lifetime.start.p0(i64 4, ptr nonnull %2) #5
  %14 = call zeroext i1 @bms_get_singleton_member(ptr noundef %13, ptr noundef nonnull %2) #5
  br i1 %14, label %15, label %32

15:                                               ; preds = %.lr.ph21
  %16 = getelementptr inbounds nuw i8, ptr %11, i64 32
  %17 = load ptr, ptr %16, align 8
  %18 = call zeroext i1 @bms_nonempty_difference(ptr noundef %17, ptr noundef %13) #5
  br i1 %18, label %19, label %32

19:                                               ; preds = %15
  %20 = load i32, ptr %2, align 4
  %21 = call ptr @find_base_rel(ptr noundef %0, i32 noundef %20) #5
  %22 = getelementptr inbounds nuw i8, ptr %21, i64 32
  %23 = load ptr, ptr %22, align 8
  %24 = getelementptr inbounds nuw i8, ptr %23, i64 8
  %25 = load ptr, ptr %24, align 8
  %26 = getelementptr inbounds nuw i8, ptr %11, i64 8
  %27 = load ptr, ptr %26, align 8
  %28 = call ptr @copyObjectImpl(ptr noundef %27) #5
  %29 = call ptr @lappend(ptr noundef %25, ptr noundef %28) #5
  %30 = load ptr, ptr %22, align 8
  %31 = getelementptr inbounds nuw i8, ptr %30, i64 8
  store ptr %29, ptr %31, align 8
  br label %32

32:                                               ; preds = %19, %15, %.lr.ph21
  call void @llvm.lifetime.end.p0(i64 4, ptr nonnull %2) #5
  %indvars.iv.next = add nuw nsw i64 %indvars.iv, 1
  %33 = load i32, ptr %5, align 4
  %34 = sext i32 %33 to i64
  %35 = icmp slt i64 %indvars.iv.next, %34
  br i1 %35, label %.lr.ph21, label %._crit_edge
}